(lp0
V/mnt/win_d/Users/Vanya/Biophys/Burnazyan/Experiments/1410_H2AX_NEW_selected/\u0411\u041c/1Gy/1h
p1
accopy_reg
_reconstructor
p2
(csettings
Settings
p3
c__builtin__
object
p4
Ntp5
Rp6
(dp7
S'nuclei_color'
p8
F0.6565656565656566
sS'foci_rescale_min'
p9
NsS'foci_color'
p10
F0.32323232323232326
sS'min_foci_radius'
p11
F3.0
sS'normalize_intensity'
p12
I01
sS'sensitivity'
p13
F5.0
sS'min_cell_size'
p14
F4000.0
sS'foci_area_fill_percent'
p15
F30.0
sS'foci_lookup_sensivity'
p16
F70.0
sS'columnOrder'
p17
(lp18
S'Mean'
p19
aS'MSE'
p20
aS'cell_00'
p21
ag21
ag21
ag21
ag21
ag21
ag21
ag21
ag21
ag21
ag21
ag21
aS'cell_01'
p22
ag22
ag22
ag22
ag22
ag22
ag22
ag22
ag22
ag22
ag22
ag22
aS'cell_02'
p23
ag23
ag23
ag23
ag23
ag23
ag23
ag23
ag23
ag23
ag23
ag23
aS'cell_03'
p24
ag24
ag24
ag24
ag24
ag24
ag24
ag24
ag24
ag24
ag24
ag24
aS'cell_04'
p25
ag25
ag25
ag25
ag25
ag25
ag25
ag25
ag25
ag25
ag25
ag25
aS'cell_05'
p26
ag26
ag26
ag26
ag26
ag26
ag26
ag26
ag26
ag26
ag26
ag26
aS'cell_06'
p27
ag27
ag27
ag27
ag27
ag27
ag27
ag27
ag27
ag27
ag27
ag27
aS'cell_07'
p28
ag28
ag28
ag28
ag28
ag28
ag28
ag28
ag28
ag28
ag28
ag28
aS'cell_08'
p29
ag29
ag29
ag29
ag29
ag29
ag29
ag29
ag29
ag29
ag29
ag29
aS'cell_09'
p30
ag30
ag30
ag30
ag30
ag30
ag30
ag30
ag30
ag30
ag30
ag30
aS'cell_10'
p31
ag31
ag31
ag31
ag31
ag31
ag31
ag31
ag31
ag31
ag31
ag31
aS'cell_11'
p32
ag32
ag32
ag32
ag32
ag32
ag32
ag32
ag32
ag32
ag32
ag32
aS'cell_12'
p33
ag33
ag33
ag33
ag33
ag33
ag33
ag33
ag33
ag33
ag33
ag33
aS'cell_13'
p34
ag34
ag34
ag34
ag34
ag34
ag34
ag34
ag34
ag34
ag34
ag34
aS'cell_14'
p35
ag35
ag35
ag35
ag35
ag35
ag35
ag35
ag35
ag35
ag35
ag35
aS'cell_15'
p36
ag36
ag36
ag36
ag36
ag36
ag36
ag36
ag36
ag36
ag36
ag36
aS'cell_16'
p37
ag37
ag37
ag37
ag37
ag37
ag37
ag37
ag37
ag37
ag37
ag37
aS'cell_17'
p38
ag38
ag38
ag38
ag38
ag38
ag38
ag38
ag38
ag38
ag38
ag38
aS'cell_18'
p39
ag39
ag39
ag39
ag39
ag39
ag39
ag39
ag39
ag39
ag39
ag39
aS'cell_19'
p40
ag40
ag40
ag40
ag40
ag40
ag40
ag40
ag40
ag40
ag40
ag40
aS'cell_20'
p41
ag41
ag41
ag41
ag41
ag41
ag41
ag41
ag41
ag41
ag41
ag41
aS'cell_21'
p42
ag42
ag42
ag42
ag42
ag42
ag42
ag42
ag42
ag42
ag42
ag42
aS'cell_22'
p43
ag43
ag43
ag43
ag43
ag43
ag43
ag43
ag43
ag43
ag43
ag43
aS'cell_23'
p44
ag44
ag44
ag44
ag44
ag44
ag44
ag44
ag44
ag44
ag44
ag44
aS'cell_24'
p45
ag45
ag45
ag45
ag45
ag45
ag45
ag45
ag45
ag45
ag45
ag45
aS'cell_25'
p46
ag46
ag46
ag46
ag46
ag46
ag46
ag46
ag46
ag46
ag46
ag46
aS'cell_26'
p47
ag47
ag47
ag47
ag47
ag47
ag47
ag47
ag47
ag47
ag47
ag47
aS'cell_27'
p48
ag48
ag48
ag48
ag48
ag48
ag48
ag48
ag48
ag48
ag48
ag48
aS'cell_28'
p49
ag49
ag49
ag49
ag49
ag49
ag49
ag49
ag49
ag49
ag49
ag49
aS'cell_29'
p50
ag50
ag50
ag50
ag50
ag50
ag50
ag50
ag50
ag50
ag50
ag50
aS'cell_30'
p51
ag51
ag51
ag51
ag51
ag51
ag51
ag51
ag51
ag51
ag51
ag51
aS'cell_31'
p52
ag52
ag52
ag52
ag52
ag52
ag52
ag52
ag52
ag52
ag52
ag52
aS'cell_32'
p53
ag53
ag53
ag53
ag53
ag53
ag53
ag53
ag53
ag53
ag53
ag53
aS'cell_33'
p54
ag54
ag54
ag54
ag54
ag54
ag54
ag54
ag54
ag54
ag54
ag54
aS'cell_34'
p55
ag55
ag55
ag55
ag55
ag55
ag55
ag55
ag55
ag55
ag55
ag55
aS'cell_35'
p56
ag56
ag56
ag56
ag56
ag56
ag56
ag56
ag56
ag56
ag56
ag56
aS'cell_36'
p57
ag57
ag57
ag57
ag57
ag57
ag57
ag57
ag57
ag57
ag57
ag57
aS'cell_37'
p58
ag58
ag58
ag58
ag58
ag58
ag58
ag58
ag58
ag58
ag58
ag58
aS'cell_38'
p59
ag59
ag59
ag59
ag59
ag59
ag59
ag59
ag59
ag59
ag59
ag59
aS'cell_39'
p60
ag60
ag60
ag60
ag60
ag60
ag60
ag60
ag60
ag60
ag60
ag60
aS'cell_40'
p61
ag61
ag61
ag61
ag61
ag61
ag61
ag61
ag61
ag61
ag61
ag61
aS'cell_41'
p62
ag62
ag62
ag62
ag62
ag62
ag62
ag62
ag62
ag62
ag62
ag62
aS'cell_42'
p63
ag63
ag63
ag63
ag63
ag63
ag63
ag63
ag63
ag63
ag63
ag63
aS'cell_43'
p64
ag64
ag64
ag64
ag64
ag64
ag64
ag64
ag64
ag64
ag64
ag64
aS'cell_44'
p65
ag65
ag65
ag65
ag65
ag65
ag65
ag65
ag65
ag65
ag65
ag65
aS'cell_45'
p66
ag66
ag66
ag66
ag66
ag66
ag66
ag66
ag66
ag66
ag66
ag66
aS'cell_46'
p67
ag67
ag67
ag67
ag67
ag67
ag67
ag67
ag67
ag67
ag67
ag67
aS'cell_47'
p68
ag68
ag68
ag68
ag68
ag68
ag68
ag68
ag68
ag68
ag68
ag68
aS'cell_48'
p69
ag69
ag69
ag69
ag69
ag69
ag69
ag69
ag69
ag69
ag69
ag69
aS'cell_49'
p70
ag70
ag70
ag70
ag70
ag70
ag70
ag70
ag70
ag70
ag70
ag70
aS'cell_50'
p71
ag71
ag71
ag71
ag71
ag71
ag71
ag71
ag71
ag71
ag71
ag71
aS'cell_51'
p72
ag72
ag72
ag72
ag72
ag72
ag72
ag72
ag72
ag72
ag72
ag72
aS'cell_52'
p73
ag73
ag73
ag73
ag73
ag73
ag73
ag73
ag73
ag73
ag73
ag73
aS'cell_53'
p74
ag74
ag74
ag74
ag74
ag74
ag74
ag74
ag74
ag74
ag74
ag74
aS'cell_54'
p75
ag75
ag75
ag75
ag75
ag75
ag75
ag75
ag75
ag75
ag75
ag75
aS'cell_55'
p76
ag76
ag76
ag76
ag76
ag76
ag76
ag76
ag76
ag76
ag76
ag76
aS'cell_56'
p77
ag77
ag77
ag77
ag77
ag77
ag77
ag77
ag77
ag77
ag77
ag77
aS'cell_57'
p78
ag78
ag78
ag78
ag78
ag78
ag78
ag78
ag78
ag78
ag78
ag78
aS'cell_58'
p79
ag79
ag79
ag79
ag79
ag79
ag79
ag79
ag79
ag79
ag79
ag79
aS'cell_59'
p80
ag80
ag80
ag80
ag80
ag80
ag80
ag80
ag80
ag80
ag80
ag80
aS'cell_60'
p81
ag81
ag81
ag81
ag81
ag81
ag81
ag81
ag81
ag81
ag81
ag81
aS'cell_61'
p82
ag82
ag82
ag82
ag82
ag82
ag82
ag82
ag82
ag82
ag82
ag82
aS'cell_62'
p83
ag83
ag83
ag83
ag83
ag83
ag83
ag83
ag83
ag83
ag83
ag83
aS'cell_63'
p84
ag84
ag84
ag84
ag84
ag84
ag84
ag84
ag84
ag84
ag84
ag84
aS'cell_64'
p85
ag85
ag85
ag85
ag85
ag85
ag85
ag85
ag85
ag85
ag85
ag85
aS'cell_65'
p86
ag86
ag86
ag86
ag86
ag86
ag86
ag86
ag86
ag86
ag86
ag86
aS'cell_66'
p87
ag87
ag87
ag87
ag87
ag87
ag87
ag87
ag87
ag87
ag87
ag87
aS'cell_67'
p88
ag88
ag88
ag88
ag88
ag88
ag88
ag88
ag88
ag88
ag88
ag88
aS'cell_68'
p89
ag89
ag89
ag89
ag89
ag89
ag89
ag89
ag89
ag89
ag89
ag89
aS'cell_69'
p90
ag90
ag90
ag90
ag90
ag90
ag90
ag90
ag90
ag90
ag90
ag90
aS'cell_70'
p91
ag91
ag91
ag91
ag91
ag91
ag91
ag91
ag91
ag91
ag91
ag91
aS'cell_71'
p92
ag92
ag92
ag92
ag92
ag92
ag92
ag92
ag92
ag92
ag92
ag92
aS'cell_72'
p93
ag93
ag93
ag93
ag93
ag93
ag93
ag93
ag93
ag93
ag93
ag93
aS'cell_73'
p94
ag94
ag94
ag94
ag94
ag94
ag94
ag94
ag94
ag94
ag94
ag94
aS'cell_74'
p95
ag95
ag95
ag95
ag95
ag95
ag95
ag95
ag95
ag95
ag95
ag95
aS'cell_75'
p96
ag96
ag96
ag96
ag96
ag96
ag96
ag96
ag96
ag96
ag96
ag96
aS'cell_76'
p97
ag97
ag97
ag97
ag97
ag97
ag97
ag97
ag97
ag97
ag97
ag97
aS'cell_77'
p98
ag98
ag98
ag98
ag98
ag98
ag98
ag98
ag98
ag98
ag98
ag98
aS'cell_78'
p99
ag99
ag99
ag99
ag99
ag99
ag99
ag99
ag99
ag99
ag99
ag99
aS'cell_79'
p100
ag100
ag100
ag100
ag100
ag100
ag100
ag100
ag100
ag100
ag100
ag100
aS'cell_80'
p101
ag101
ag101
ag101
ag101
ag101
ag101
ag101
ag101
ag101
ag101
ag101
aS'cell_81'
p102
ag102
ag102
ag102
ag102
ag102
ag102
ag102
ag102
ag102
ag102
ag102
aS'cell_82'
p103
ag103
ag103
ag103
ag103
ag103
ag103
ag103
ag103
ag103
ag103
ag103
aS'cell_83'
p104
ag104
ag104
ag104
ag104
ag104
ag104
ag104
ag104
ag104
ag104
ag104
aS'cell_84'
p105
ag105
ag105
ag105
ag105
ag105
ag105
ag105
ag105
ag105
ag105
ag105
aS'cell_85'
p106
ag106
ag106
ag106
ag106
ag106
ag106
ag106
ag106
ag106
ag106
ag106
aS'cell_86'
p107
ag107
ag107
ag107
ag107
ag107
ag107
ag107
ag107
ag107
ag107
ag107
aS'cell_87'
p108
ag108
ag108
ag108
ag108
ag108
ag108
ag108
ag108
ag108
ag108
ag108
aS'cell_88'
p109
ag109
ag109
ag109
ag109
ag109
ag109
ag109
ag109
ag109
ag109
ag109
aS'cell_89'
p110
ag110
ag110
ag110
ag110
ag110
ag110
ag110
ag110
ag110
ag110
ag110
aS'cell_90'
p111
ag111
ag111
ag111
ag111
ag111
ag111
ag111
ag111
ag111
ag111
ag111
aS'cell_91'
p112
ag112
ag112
ag112
ag112
ag112
ag112
ag112
ag112
ag112
ag112
ag112
aS'cell_92'
p113
ag113
ag113
ag113
ag113
ag113
ag113
ag113
ag113
ag113
ag113
ag113
aS'cell_93'
p114
ag114
ag114
ag114
ag114
ag114
ag114
ag114
ag114
ag114
ag114
ag114
aS'cell_94'
p115
ag115
ag115
ag115
ag115
ag115
ag115
ag115
ag115
ag115
ag115
ag115
aS'cell_95'
p116
ag116
ag116
ag116
ag116
ag116
ag116
ag116
ag116
ag116
ag116
ag116
aS'cell_96'
p117
ag117
ag117
ag117
ag117
ag117
ag117
ag117
ag117
ag117
ag117
ag117
aS'cell_97'
p118
ag118
ag118
ag118
ag118
ag118
ag118
ag118
ag118
ag118
ag118
ag118
asS'foci_name'
p119
V3TxRed.TIF
p120
sS'allowed_foci_overlap'
p121
F100.0
sS'max_foci_radius'
p122
F12.0
sS'foci_rescale_max'
p123
NsS'rowOrder'
p124
(lp125
S'Cell number'
p126
aS'Cell area'
p127
aS'Mean intensity im1'
p128
aS'Mean intensity im2'
p129
aS'Abs foci number'
p130
aS'Abs foci area'
p131
aS'Abs foci soid'
p132
aS'Rel foci number'
p133
aS'Rel foci area'
p134
aS'Rel foci soid'
p135
aS'Foci intensity'
p136
aS'Foci size'
p137
aS'Cell intensity im1'
p138
aS'Cell intensity im2'
p139
asS'return_circles'
p140
I01
sS'nuclei_name'
p141
V3DAPI.TIF
p142
sba(lp143
V/mnt/win_d/Users/Vanya/Biophys/Burnazyan/Experiments/1410_H2AX_NEW_selected/\u0411\u041c/1Gy/1h/20141013_184027_
p144
aa.